Certificate:
    Data:
        Version: 3 (0x2)
        Serial Number:
            52:5b:7c:34:8f:f0:28:ff:59:6d:03:ef:6e:bf:73:2a
        Signature Algorithm: sha256WithRSAEncryption
        Issuer: CN=Easy-RSA CA
        Validity
            Not Before: Oct  4 11:51:34 2024 GMT
            Not After : Jan  7 11:51:34 2027 GMT
        Subject: CN=client2
        Subject Public Key Info:
            Public Key Algorithm: rsaEncryption
                Public-Key: (2048 bit)
                Modulus:
                    00:e8:3b:2d:40:5e:23:0c:0c:2c:87:59:01:5e:ac:
                    3d:3a:70:ea:89:38:23:83:a3:3a:3e:1e:09:95:b3:
                    74:0f:7d:75:75:40:66:ae:ed:eb:44:4c:a9:f1:dd:
                    0c:c6:c3:f9:4e:a0:0d:da:16:3d:11:d3:cb:38:ee:
                    26:bc:c3:47:d3:e7:4f:af:51:99:3b:5c:f9:6c:39:
                    39:33:56:45:5f:85:86:87:85:bb:18:93:8a:31:e4:
                    10:67:bf:31:9c:12:d9:b1:87:15:3e:41:ce:9f:bc:
                    a6:d1:f7:b0:42:35:69:1c:55:0d:a4:12:86:f9:42:
                    92:20:8f:0f:bd:13:38:bc:e0:7d:bb:6d:fd:0f:2c:
                    fd:44:5c:b9:81:05:38:f6:4e:7f:6e:dd:22:2f:b5:
                    97:f7:2b:7b:d9:7b:53:01:65:7d:f5:8e:27:c1:1c:
                    42:24:68:32:61:97:78:b5:8e:2d:11:18:1d:1f:dc:
                    f3:b3:5a:22:bc:a7:52:b3:c2:fb:b2:6c:ad:45:b1:
                    f5:0a:cf:74:4f:90:67:bb:29:dc:ea:83:ff:9b:06:
                    3f:7e:24:34:1e:bf:86:90:7b:59:c9:b3:d8:59:82:
                    00:16:51:1b:9d:19:a8:95:1c:d1:77:45:19:2a:fc:
                    83:90:d6:65:17:d8:6b:d1:a6:76:ad:48:7a:31:17:
                    7d:15
                Exponent: 65537 (0x10001)
        X509v3 extensions:
            X509v3 Basic Constraints: 
                CA:FALSE
            X509v3 Subject Key Identifier: 
                BD:6E:CF:57:0F:67:2B:22:C5:A6:96:9C:75:26:B5:DE:DB:D5:5C:98
            X509v3 Authority Key Identifier: 
                keyid:8B:EC:FA:5E:45:98:63:6F:51:65:C8:F4:F4:87:A7:A3:60:AD:1D:58
                DirName:/CN=Easy-RSA CA
                serial:1F:77:AA:85:E8:5C:8D:EB:1E:41:E1:29:4C:2B:FE:3B:E9:5D:1F:31
            X509v3 Extended Key Usage: 
                TLS Web Client Authentication
            X509v3 Key Usage: 
                Digital Signature
    Signature Algorithm: sha256WithRSAEncryption
    Signature Value:
        0a:f4:23:0b:2d:32:31:46:e3:d9:44:51:e3:05:80:57:b7:f8:
        7b:3a:b3:6a:6e:5c:25:41:8f:a5:31:01:d5:8f:cc:bd:12:78:
        0b:46:02:1e:60:39:98:47:24:e7:e1:b5:58:cb:e5:58:db:bf:
        b7:73:e1:ec:f2:b0:82:c7:e3:2b:9e:d1:44:2c:01:52:f3:ae:
        22:65:f7:29:74:1c:53:53:73:fb:00:e1:d2:8b:ef:4e:74:d4:
        10:29:bf:1f:fd:13:76:ee:36:35:01:6f:11:6d:df:9b:e1:c4:
        e3:5f:c0:bf:08:ab:92:0d:c7:6a:7d:74:a2:c7:89:1c:c9:2a:
        1a:fc:92:ea:f9:40:2d:82:81:0e:01:62:e3:56:ad:08:7e:56:
        9d:8f:6f:87:8f:5e:14:eb:9f:b2:e6:60:0e:da:6a:ce:05:e4:
        26:58:4c:b9:2d:4c:56:3a:ef:4c:22:69:8e:86:36:a7:78:ef:
        bb:e0:c7:b6:f2:83:3f:d4:75:20:e6:f9:4f:c5:4f:b6:7d:58:
        08:c3:9e:15:1c:85:f1:6b:9d:54:ee:40:11:52:2c:56:d1:d5:
        d6:11:00:c8:89:9b:43:aa:11:20:75:68:73:66:ba:3b:05:98:
        c9:cc:bc:3c:9b:16:cc:7c:d4:05:cd:7f:7f:dd:8f:d3:90:b5:
        75:02:f7:79
-----BEGIN CERTIFICATE-----
MIIDVTCCAj2gAwIBAgIQUlt8NI/wKP9ZbQPvbr9zKjANBgkqhkiG9w0BAQsFADAW
MRQwEgYDVQQDDAtFYXN5LVJTQSBDQTAeFw0yNDEwMDQxMTUxMzRaFw0yNzAxMDcx
MTUxMzRaMBIxEDAOBgNVBAMMB2NsaWVudDIwggEiMA0GCSqGSIb3DQEBAQUAA4IB
DwAwggEKAoIBAQDoOy1AXiMMDCyHWQFerD06cOqJOCODozo+HgmVs3QPfXV1QGau
7etETKnx3QzGw/lOoA3aFj0R08s47ia8w0fT50+vUZk7XPlsOTkzVkVfhYaHhbsY
k4ox5BBnvzGcEtmxhxU+Qc6fvKbR97BCNWkcVQ2kEob5QpIgjw+9Ezi84H27bf0P
LP1EXLmBBTj2Tn9u3SIvtZf3K3vZe1MBZX31jifBHEIkaDJhl3i1ji0RGB0f3POz
WiK8p1KzwvuybK1FsfUKz3RPkGe7Kdzqg/+bBj9+JDQev4aQe1nJs9hZggAWURud
GaiVHNF3RRkq/IOQ1mUX2GvRpnatSHoxF30VAgMBAAGjgaIwgZ8wCQYDVR0TBAIw
ADAdBgNVHQ4EFgQUvW7PVw9nKyLFppacdSa13tvVXJgwUQYDVR0jBEowSIAUi+z6
XkWYY29RZcj09Ieno2CtHVihGqQYMBYxFDASBgNVBAMMC0Vhc3ktUlNBIENBghQf
d6qF6FyN6x5B4SlMK/476V0fMTATBgNVHSUEDDAKBggrBgEFBQcDAjALBgNVHQ8E
BAMCB4AwDQYJKoZIhvcNAQELBQADggEBAAr0IwstMjFG49lEUeMFgFe3+Hs6s2pu
XCVBj6UxAdWPzL0SeAtGAh5gOZhHJOfhtVjL5Vjbv7dz4ezysILH4yue0UQsAVLz
riJl9yl0HFNTc/sA4dKL70501BApvx/9E3buNjUBbxFt35vhxONfwL8Iq5INx2p9
dKLHiRzJKhr8kur5QC2CgQ4BYuNWrQh+Vp2Pb4ePXhTrn7LmYA7aas4F5CZYTLkt
TFY670wiaY6GNqd477vgx7bygz/UdSDm+U/FT7Z9WAjDnhUchfFrnVTuQBFSLFbR
1dYRAMiJm0OqESB1aHNmujsFmMnMvDybFsx81AXNf3/dj9OQtXUC93k=
-----END CERTIFICATE-----
